target datalayout = "e-m:e-p270:32:32-p271:32:32-p272:64:64-i64:64-i128:128-f80:128-n8:16:32:64-S128"
target triple = "x86_64-pc-linux-gnu"

%struct.uv_loop_s = type { ptr, i32, [2 x ptr], %union.anon, ptr, i32, i64, i32, [2 x ptr], [2 x ptr], ptr, i32, i32, [2 x ptr], %union.pthread_mutex_t, %struct.uv_async_s, %union.pthread_rwlock_t, ptr, [2 x ptr], [2 x ptr], [2 x ptr], [2 x ptr], [2 x ptr], ptr, %struct.uv__io_s, i32, %struct.anon, i64, i64, [2 x i32], %struct.uv__io_s, %struct.uv_signal_s, i32, %struct.uv__io_s, ptr, i32 }
%union.anon = type { ptr }
%union.pthread_mutex_t = type { %struct.__pthread_mutex_s }
%struct.__pthread_mutex_s = type { i32, i32, i32, i32, i32, i16, i16, %struct.__pthread_internal_list }
%struct.__pthread_internal_list = type { ptr, ptr }
%struct.uv_async_s = type { ptr, ptr, i32, ptr, [2 x ptr], %union.anon.0, ptr, i32, ptr, [2 x ptr], i32 }
%union.anon.0 = type { [4 x ptr] }
%union.pthread_rwlock_t = type { %struct.__pthread_rwlock_arch_t }
%struct.__pthread_rwlock_arch_t = type { i32, i32, i32, i32, i32, i32, i32, i32, i8, [7 x i8], i64, i32 }
%struct.anon = type { ptr, i32 }
%struct.uv_signal_s = type { ptr, ptr, i32, ptr, [2 x ptr], %union.anon.1, ptr, i32, ptr, i32, %struct.anon.2, i32, i32 }
%union.anon.1 = type { [4 x ptr] }
%struct.anon.2 = type { ptr, ptr, ptr, i32 }
%struct.uv__io_s = type { ptr, [2 x ptr], [2 x ptr], i32, i32, i32 }

; Function Attrs: nounwind uwtable
define dso_local i32 @uv_loop_fork(ptr noundef %0) #0 {
  %2 = alloca i32, align 4
  %3 = alloca ptr, align 8
  %4 = alloca i32, align 4
  %5 = alloca i32, align 4
  %6 = alloca ptr, align 8
  %7 = alloca i32, align 4
  store ptr %0, ptr %3, align 8, !tbaa !4
  call void @llvm.lifetime.start.p0(i64 4, ptr %4) #4
  call void @llvm.lifetime.start.p0(i64 4, ptr %5) #4
  call void @llvm.lifetime.start.p0(i64 8, ptr %6) #4
  %8 = load ptr, ptr %3, align 8, !tbaa !4
  %9 = call i32 @uv__io_fork(ptr noundef %8)
  store i32 %9, ptr %4, align 4, !tbaa !25
  %10 = load i32, ptr %4, align 4, !tbaa !25
  %11 = icmp ne i32 %10, 0
  br i1 %11, label %12, label %14

12:                                               ; preds = %1
  %13 = load i32, ptr %4, align 4, !tbaa !25
  store i32 %13, ptr %2, align 4
  store i32 1, ptr %7, align 4
  br label %94

14:                                               ; preds = %1
  %15 = load ptr, ptr %3, align 8, !tbaa !4
  %16 = call i32 @uv__async_fork(ptr noundef %15)
  store i32 %16, ptr %4, align 4, !tbaa !25
  %17 = load i32, ptr %4, align 4, !tbaa !25
  %18 = icmp ne i32 %17, 0
  br i1 %18, label %19, label %21

19:                                               ; preds = %14
  %20 = load i32, ptr %4, align 4, !tbaa !25
  store i32 %20, ptr %2, align 4
  store i32 1, ptr %7, align 4
  br label %94

21:                                               ; preds = %14
  %22 = load ptr, ptr %3, align 8, !tbaa !4
  %23 = call i32 @uv__signal_loop_fork(ptr noundef %22)
  store i32 %23, ptr %4, align 4, !tbaa !25
  %24 = load i32, ptr %4, align 4, !tbaa !25
  %25 = icmp ne i32 %24, 0
  br i1 %25, label %26, label %28

26:                                               ; preds = %21
  %27 = load i32, ptr %4, align 4, !tbaa !25
  store i32 %27, ptr %2, align 4
  store i32 1, ptr %7, align 4
  br label %94

28:                                               ; preds = %21
  store i32 0, ptr %5, align 4, !tbaa !25
  br label %29

29:                                               ; preds = %90, %28
  %30 = load i32, ptr %5, align 4, !tbaa !25
  %31 = load ptr, ptr %3, align 8, !tbaa !4
  %32 = getelementptr inbounds nuw %struct.uv_loop_s, ptr %31, i32 0, i32 11
  %33 = load i32, ptr %32, align 8, !tbaa !30
  %34 = icmp ult i32 %30, %33
  br i1 %34, label %35, label %93

35:                                               ; preds = %29
  %36 = load ptr, ptr %3, align 8, !tbaa !4
  %37 = getelementptr inbounds nuw %struct.uv_loop_s, ptr %36, i32 0, i32 10
  %38 = load ptr, ptr %37, align 8, !tbaa !29
  %39 = load i32, ptr %5, align 4, !tbaa !25
  %40 = zext i32 %39 to i64
  %41 = getelementptr inbounds nuw ptr, ptr %38, i64 %40
  %42 = load ptr, ptr %41, align 8, !tbaa !47
  store ptr %42, ptr %6, align 8, !tbaa !47
  %43 = load ptr, ptr %6, align 8, !tbaa !47
  %44 = icmp eq ptr %43, null
  br i1 %44, label %45, label %46

45:                                               ; preds = %35
  br label %90

46:                                               ; preds = %35
  %47 = load ptr, ptr %6, align 8, !tbaa !47
  %48 = getelementptr inbounds nuw %struct.uv__io_s, ptr %47, i32 0, i32 3
  %49 = load i32, ptr %48, align 8, !tbaa !49
  %50 = icmp ne i32 %49, 0
  br i1 %50, label %51, label %89

51:                                               ; preds = %46
  %52 = load ptr, ptr %6, align 8, !tbaa !47
  %53 = getelementptr inbounds nuw %struct.uv__io_s, ptr %52, i32 0, i32 2
  %54 = load ptr, ptr %6, align 8, !tbaa !47
  %55 = getelementptr inbounds nuw %struct.uv__io_s, ptr %54, i32 0, i32 2
  %56 = getelementptr inbounds [2 x ptr], ptr %55, i64 0, i64 0
  %57 = load ptr, ptr %56, align 8, !tbaa !21
  %58 = icmp eq ptr %53, %57
  br i1 %58, label %59, label %89

59:                                               ; preds = %51
  %60 = load ptr, ptr %6, align 8, !tbaa !47
  %61 = getelementptr inbounds nuw %struct.uv__io_s, ptr %60, i32 0, i32 4
  store i32 0, ptr %61, align 4, !tbaa !50
  br label %62

62:                                               ; preds = %59
  %63 = load ptr, ptr %3, align 8, !tbaa !4
  %64 = getelementptr inbounds nuw %struct.uv_loop_s, ptr %63, i32 0, i32 9
  %65 = load ptr, ptr %6, align 8, !tbaa !47
  %66 = getelementptr inbounds nuw %struct.uv__io_s, ptr %65, i32 0, i32 2
  %67 = getelementptr inbounds [2 x ptr], ptr %66, i64 0, i64 0
  store ptr %64, ptr %67, align 8, !tbaa !21
  %68 = load ptr, ptr %3, align 8, !tbaa !4
  %69 = getelementptr inbounds nuw %struct.uv_loop_s, ptr %68, i32 0, i32 9
  %70 = getelementptr inbounds [2 x ptr], ptr %69, i64 0, i64 1
  %71 = load ptr, ptr %70, align 8, !tbaa !21
  %72 = load ptr, ptr %6, align 8, !tbaa !47
  %73 = getelementptr inbounds nuw %struct.uv__io_s, ptr %72, i32 0, i32 2
  %74 = getelementptr inbounds [2 x ptr], ptr %73, i64 0, i64 1
  store ptr %71, ptr %74, align 8, !tbaa !21
  %75 = load ptr, ptr %6, align 8, !tbaa !47
  %76 = getelementptr inbounds nuw %struct.uv__io_s, ptr %75, i32 0, i32 2
  %77 = load ptr, ptr %6, align 8, !tbaa !47
  %78 = getelementptr inbounds nuw %struct.uv__io_s, ptr %77, i32 0, i32 2
  %79 = getelementptr inbounds [2 x ptr], ptr %78, i64 0, i64 1
  %80 = load ptr, ptr %79, align 8, !tbaa !21
  %81 = getelementptr inbounds [2 x ptr], ptr %80, i64 0, i64 0
  store ptr %76, ptr %81, align 8, !tbaa !21
  %82 = load ptr, ptr %6, align 8, !tbaa !47
  %83 = getelementptr inbounds nuw %struct.uv__io_s, ptr %82, i32 0, i32 2
  %84 = load ptr, ptr %3, align 8, !tbaa !4
  %85 = getelementptr inbounds nuw %struct.uv_loop_s, ptr %84, i32 0, i32 9
  %86 = getelementptr inbounds [2 x ptr], ptr %85, i64 0, i64 1
  store ptr %83, ptr %86, align 8, !tbaa !21
  br label %87

87:                                               ; preds = %62
  br label %88

88:                                               ; preds = %87
  br label %89

89:                                               ; preds = %88, %51, %46
  br label %90

90:                                               ; preds = %89, %45
  %91 = load i32, ptr %5, align 4, !tbaa !25
  %92 = add i32 %91, 1
  store i32 %92, ptr %5, align 4, !tbaa !25
  br label %29, !llvm.loop !51

93:                                               ; preds = %29
  store i32 0, ptr %2, align 4
  store i32 1, ptr %7, align 4
  br label %94

94:                                               ; preds = %93, %26, %19, %12
  call void @llvm.lifetime.end.p0(i64 8, ptr %6) #4
  call void @llvm.lifetime.end.p0(i64 4, ptr %5) #4
  call void @llvm.lifetime.end.p0(i64 4, ptr %4) #4
  %95 = load i32, ptr %2, align 4
  ret i32 %95
}