; Function Attrs: nounwind uwtable
define dso_local i32 @uv_loop_fork(ptr noundef %0) local_unnamed_addr #0 {
  %2 = tail call i32 @uv__io_fork(ptr noundef %0) #4
  %.not = icmp eq i32 %2, 0
  br i1 %.not, label %3, label %.loopexit

3:                                                ; preds = %1
  %4 = tail call i32 @uv__async_fork(ptr noundef %0) #4
  %.not33 = icmp eq i32 %4, 0
  br i1 %.not33, label %5, label %.loopexit

5:                                                ; preds = %3
  %6 = tail call i32 @uv__signal_loop_fork(ptr noundef %0) #4
  %.not34 = icmp eq i32 %6, 0
  br i1 %.not34, label %.preheader, label %.loopexit

.preheader:                                       ; preds = %5
  %7 = getelementptr inbounds nuw i8, ptr %0, i64 112
  %8 = load i32, ptr %7, align 8, !tbaa !40
  %.not37 = icmp eq i32 %8, 0
  br i1 %.not37, label %.loopexit, label %.lr.ph

.lr.ph:                                           ; preds = %.preheader
  %9 = getelementptr inbounds nuw i8, ptr %0, i64 104
  %10 = getelementptr inbounds nuw i8, ptr %0, i64 88
  %11 = getelementptr inbounds nuw i8, ptr %0, i64 96
  %wide.trip.count = zext i32 %8 to i64
  br label %12

12:                                               ; preds = %.lr.ph, %28
  %indvars.iv = phi i64 [ 0, %.lr.ph ], [ %indvars.iv.next, %28 ]
  %13 = load ptr, ptr %9, align 8, !tbaa !39
  %14 = getelementptr inbounds nuw ptr, ptr %13, i64 %indvars.iv
  %15 = load ptr, ptr %14, align 8, !tbaa !41
  %16 = icmp eq ptr %15, null
  br i1 %16, label %28, label %17

17:                                               ; preds = %12
  %18 = getelementptr inbounds nuw i8, ptr %15, i64 40
  %19 = load i32, ptr %18, align 8, !tbaa !43
  %.not35 = icmp eq i32 %19, 0
  br i1 %.not35, label %28, label %20

20:                                               ; preds = %17
  %21 = getelementptr inbounds nuw i8, ptr %15, i64 24
  %22 = load ptr, ptr %21, align 8, !tbaa !25
  %23 = icmp eq ptr %21, %22
  br i1 %23, label %24, label %28

24:                                               ; preds = %20
  %25 = getelementptr inbounds nuw i8, ptr %15, i64 44
  store i32 0, ptr %25, align 4, !tbaa !44
  store ptr %10, ptr %21, align 8, !tbaa !25
  %26 = load ptr, ptr %11, align 8, !tbaa !25
  %27 = getelementptr inbounds nuw i8, ptr %15, i64 32
  store ptr %26, ptr %27, align 8, !tbaa !25
  store ptr %21, ptr %26, align 8, !tbaa !25
  store ptr %21, ptr %11, align 8, !tbaa !25
  br label %28

28:                                               ; preds = %17, %20, %24, %12
  %indvars.iv.next = add nuw nsw i64 %indvars.iv, 1
  %exitcond.not = icmp eq i64 %indvars.iv.next, %wide.trip.count
  br i1 %exitcond.not, label %.loopexit, label %12, !llvm.loop !45

.loopexit:                                        ; preds = %28, %.preheader, %5, %3, %1
  %.0 = phi i32 [ %2, %1 ], [ %4, %3 ], [ %6, %5 ], [ 0, %.preheader ], [ 0, %28 ]
  ret i32 %.0
}